target datalayout = "e-m:e-p270:32:32-p271:32:32-p272:64:64-i64:64-i128:128-f80:128-n8:16:32:64-S128"
target triple = "x86_64-unknown-linux-gnu"

%"class.eastl::span" = type { ptr, i64 }
%"class.eastl::span.0" = type { ptr, i64 }
%"class.eastl::span.5" = type { ptr, i64 }

@.str = private unnamed_addr constant [114 x i8] c"generated/home/dtcxzyw/WorkSpace/Projects/compilers/llvm-opt-benchmark/bench/eastl/EASTL/test/source/TestSpan.cpp\00", align 1
@__const._Z17TestSpanSizeBytesRi.arr = private unnamed_addr constant [5 x i32] [i32 0, i32 1, i32 2, i32 3, i32 4], align 16
@.str.14 = private unnamed_addr constant [30 x i8] c"s.size_bytes() == sizeof(arr)\00", align 1
@.str.15 = private unnamed_addr constant [36 x i8] c"s.size_bytes() == (5 * sizeof(int))\00", align 1
@__const._Z17TestSpanSizeBytesRi.arr.16 = private unnamed_addr constant [8 x float] [float 0.000000e+00, float 1.000000e+00, float 2.000000e+00, float 3.000000e+00, float 4.000000e+00, float 5.000000e+00, float 6.000000e+00, float 7.000000e+00], align 16
@.str.17 = private unnamed_addr constant [38 x i8] c"s.size_bytes() == (8 * sizeof(float))\00", align 1
@.str.18 = private unnamed_addr constant [40 x i8] c"s.size_bytes() == (5 * sizeof(int64_t))\00", align 1

; Function Attrs: mustprogress nounwind uwtable
define linkonce_odr dso_local noundef i64 @_ZNK5eastl4spanIlLm18446744073709551615EE4sizeEv(ptr noundef nonnull align 8 dereferenceable(16) %this) #1 comdat align 2 {
entry:
  %this.addr = alloca ptr, align 8
  store ptr %this, ptr %this.addr, align 8
  %this1 = load ptr, ptr %this.addr, align 8
  %mnSize = getelementptr inbounds %"class.eastl::span.5", ptr %this1, i32 0, i32 1
  %0 = load i64, ptr %mnSize, align 8
  ret i64 %0
}

; Function Attrs: mustprogress nounwind uwtable
define linkonce_odr dso_local void @_ZN5eastl4spanIlLm18446744073709551615EEC2EPlm(ptr noundef nonnull align 8 dereferenceable(16) %this, ptr noundef %ptr, i64 noundef %size) unnamed_addr #1 comdat align 2 {
entry:
  %this.addr = alloca ptr, align 8
  %ptr.addr = alloca ptr, align 8
  %size.addr = alloca i64, align 8
  store ptr %this, ptr %this.addr, align 8
  store ptr %ptr, ptr %ptr.addr, align 8
  store i64 %size, ptr %size.addr, align 8
  %this1 = load ptr, ptr %this.addr, align 8
  %mpData = getelementptr inbounds %"class.eastl::span.5", ptr %this1, i32 0, i32 0
  %0 = load ptr, ptr %ptr.addr, align 8
  store ptr %0, ptr %mpData, align 8
  %mnSize = getelementptr inbounds %"class.eastl::span.5", ptr %this1, i32 0, i32 1
  %1 = load i64, ptr %size.addr, align 8
  store i64 %1, ptr %mnSize, align 8
  ret void
}

; Function Attrs: mustprogress nounwind uwtable
define linkonce_odr dso_local noundef i64 @_ZNK5eastl4spanIfLm18446744073709551615EE4sizeEv(ptr noundef nonnull align 8 dereferenceable(16) %this) #1 comdat align 2 {
entry:
  %this.addr = alloca ptr, align 8
  store ptr %this, ptr %this.addr, align 8
  %this1 = load ptr, ptr %this.addr, align 8
  %mnSize = getelementptr inbounds %"class.eastl::span.0", ptr %this1, i32 0, i32 1
  %0 = load i64, ptr %mnSize, align 8
  ret i64 %0
}

; Function Attrs: noreturn nounwind uwtable
define linkonce_odr hidden void @__clang_call_terminate(ptr noundef %0) #5 comdat {
  %2 = call ptr @__cxa_begin_catch(ptr %0) #7
  call void @_ZSt9terminatev() #8
  unreachable
}

; Function Attrs: mustprogress nounwind uwtable
define linkonce_odr dso_local void @_ZN5eastl4spanIfLm18446744073709551615EEC2EPfm(ptr noundef nonnull align 8 dereferenceable(16) %this, ptr noundef %ptr, i64 noundef %size) unnamed_addr #1 comdat align 2 {
entry:
  %this.addr = alloca ptr, align 8
  %ptr.addr = alloca ptr, align 8
  %size.addr = alloca i64, align 8
  store ptr %this, ptr %this.addr, align 8
  store ptr %ptr, ptr %ptr.addr, align 8
  store i64 %size, ptr %size.addr, align 8
  %this1 = load ptr, ptr %this.addr, align 8
  %mpData = getelementptr inbounds %"class.eastl::span.0", ptr %this1, i32 0, i32 0
  %0 = load ptr, ptr %ptr.addr, align 8
  store ptr %0, ptr %mpData, align 8
  %mnSize = getelementptr inbounds %"class.eastl::span.0", ptr %this1, i32 0, i32 1
  %1 = load i64, ptr %size.addr, align 8
  store i64 %1, ptr %mnSize, align 8
  ret void
}

; Function Attrs: mustprogress nounwind uwtable
define linkonce_odr dso_local noundef i64 @_ZNK5eastl4spanIiLm18446744073709551615EE4sizeEv(ptr noundef nonnull align 8 dereferenceable(16) %this) #1 comdat align 2 {
entry:
  %this.addr = alloca ptr, align 8
  store ptr %this, ptr %this.addr, align 8
  %this1 = load ptr, ptr %this.addr, align 8
  %mnSize = getelementptr inbounds %"class.eastl::span", ptr %this1, i32 0, i32 1
  %0 = load i64, ptr %mnSize, align 8
  ret i64 %0
}

; Function Attrs: mustprogress nounwind uwtable
define linkonce_odr dso_local void @_ZN5eastl4spanIiLm18446744073709551615EEC2EPim(ptr noundef nonnull align 8 dereferenceable(16) %this, ptr noundef %ptr, i64 noundef %size) unnamed_addr #1 comdat align 2 {
entry:
  %this.addr = alloca ptr, align 8
  %ptr.addr = alloca ptr, align 8
  %size.addr = alloca i64, align 8
  store ptr %this, ptr %this.addr, align 8
  store ptr %ptr, ptr %ptr.addr, align 8
  store i64 %size, ptr %size.addr, align 8
  %this1 = load ptr, ptr %this.addr, align 8
  %mpData = getelementptr inbounds %"class.eastl::span", ptr %this1, i32 0, i32 0
  %0 = load ptr, ptr %ptr.addr, align 8
  store ptr %0, ptr %mpData, align 8
  %mnSize = getelementptr inbounds %"class.eastl::span", ptr %this1, i32 0, i32 1
  %1 = load i64, ptr %size.addr, align 8
  store i64 %1, ptr %mnSize, align 8
  ret void
}

; Function Attrs: mustprogress nounwind uwtable
define linkonce_odr dso_local noundef i64 @_ZNK5eastl4spanIlLm18446744073709551615EE10size_bytesEv(ptr noundef nonnull align 8 dereferenceable(16) %this) #1 comdat align 2 {
entry:
  %this.addr = alloca ptr, align 8
  store ptr %this, ptr %this.addr, align 8
  %this1 = load ptr, ptr %this.addr, align 8
  %call = call noundef i64 @_ZNK5eastl4spanIlLm18446744073709551615EE4sizeEv(ptr noundef nonnull align 8 dereferenceable(16) %this1) #7
  %mul = mul i64 %call, 8
  ret i64 %mul
}

; Function Attrs: mustprogress nounwind uwtable
define linkonce_odr dso_local void @_ZN5eastl4spanIlLm18446744073709551615EEC2ILm5EvEERAT__l(ptr noundef nonnull align 8 dereferenceable(16) %this, ptr noundef nonnull align 8 dereferenceable(40) %arr) unnamed_addr #1 comdat align 2 personality ptr @__gxx_personality_v0 {
entry:
  %this.addr = alloca ptr, align 8
  %arr.addr = alloca ptr, align 8
  store ptr %this, ptr %this.addr, align 8
  store ptr %arr, ptr %arr.addr, align 8
  %this1 = load ptr, ptr %this.addr, align 8
  %0 = load ptr, ptr %arr.addr, align 8
  %arraydecay = getelementptr inbounds [5 x i64], ptr %0, i64 0, i64 0
  invoke void @_ZN5eastl4spanIlLm18446744073709551615EEC2EPlm(ptr noundef nonnull align 8 dereferenceable(16) %this1, ptr noundef %arraydecay, i64 noundef 5)
          to label %invoke.cont unwind label %terminate.lpad

invoke.cont:                                      ; preds = %entry
  ret void

terminate.lpad:                                   ; preds = %entry
  %1 = landingpad { ptr, i32 }
          catch ptr null
  %2 = extractvalue { ptr, i32 } %1, 0
  call void @__clang_call_terminate(ptr %2) #8
  unreachable
}

; Function Attrs: mustprogress nounwind uwtable
define linkonce_odr dso_local noundef i64 @_ZNK5eastl4spanIfLm18446744073709551615EE10size_bytesEv(ptr noundef nonnull align 8 dereferenceable(16) %this) #1 comdat align 2 {
entry:
  %this.addr = alloca ptr, align 8
  store ptr %this, ptr %this.addr, align 8
  %this1 = load ptr, ptr %this.addr, align 8
  %call = call noundef i64 @_ZNK5eastl4spanIfLm18446744073709551615EE4sizeEv(ptr noundef nonnull align 8 dereferenceable(16) %this1) #7
  %mul = mul i64 %call, 4
  ret i64 %mul
}

; Function Attrs: mustprogress nounwind uwtable
define linkonce_odr dso_local void @_ZN5eastl4spanIfLm18446744073709551615EEC2ILm8EvEERAT__f(ptr noundef nonnull align 8 dereferenceable(16) %this, ptr noundef nonnull align 4 dereferenceable(32) %arr) unnamed_addr #1 comdat align 2 personality ptr @__gxx_personality_v0 {
entry:
  %this.addr = alloca ptr, align 8
  %arr.addr = alloca ptr, align 8
  store ptr %this, ptr %this.addr, align 8
  store ptr %arr, ptr %arr.addr, align 8
  %this1 = load ptr, ptr %this.addr, align 8
  %0 = load ptr, ptr %arr.addr, align 8
  %arraydecay = getelementptr inbounds [8 x float], ptr %0, i64 0, i64 0
  invoke void @_ZN5eastl4spanIfLm18446744073709551615EEC2EPfm(ptr noundef nonnull align 8 dereferenceable(16) %this1, ptr noundef %arraydecay, i64 noundef 8)
          to label %invoke.cont unwind label %terminate.lpad

invoke.cont:                                      ; preds = %entry
  ret void

terminate.lpad:                                   ; preds = %entry
  %1 = landingpad { ptr, i32 }
          catch ptr null
  %2 = extractvalue { ptr, i32 } %1, 0
  call void @__clang_call_terminate(ptr %2) #8
  unreachable
}

; Function Attrs: mustprogress nounwind uwtable
define linkonce_odr dso_local noundef i64 @_ZNK5eastl4spanIiLm18446744073709551615EE10size_bytesEv(ptr noundef nonnull align 8 dereferenceable(16) %this) #1 comdat align 2 {
entry:
  %this.addr = alloca ptr, align 8
  store ptr %this, ptr %this.addr, align 8
  %this1 = load ptr, ptr %this.addr, align 8
  %call = call noundef i64 @_ZNK5eastl4spanIiLm18446744073709551615EE4sizeEv(ptr noundef nonnull align 8 dereferenceable(16) %this1) #7
  %mul = mul i64 %call, 4
  ret i64 %mul
}

; Function Attrs: mustprogress nounwind uwtable
define linkonce_odr dso_local void @_ZN5eastl4spanIiLm18446744073709551615EEC2ILm5EvEERAT__i(ptr noundef nonnull align 8 dereferenceable(16) %this, ptr noundef nonnull align 4 dereferenceable(20) %arr) unnamed_addr #1 comdat align 2 {
entry:
  %this.addr = alloca ptr, align 8
  %arr.addr = alloca ptr, align 8
  store ptr %this, ptr %this.addr, align 8
  store ptr %arr, ptr %arr.addr, align 8
  %this1 = load ptr, ptr %this.addr, align 8
  %0 = load ptr, ptr %arr.addr, align 8
  %arraydecay = getelementptr inbounds [5 x i32], ptr %0, i64 0, i64 0
  call void @_ZN5eastl4spanIiLm18446744073709551615EEC2EPim(ptr noundef nonnull align 8 dereferenceable(16) %this1, ptr noundef %arraydecay, i64 noundef 5)
  ret void
}

; Function Attrs: mustprogress uwtable
define dso_local void @_Z17TestSpanSizeBytesRi(ptr noundef nonnull align 4 dereferenceable(4) %nErrorCount) #0 {
entry:
  %nErrorCount.addr = alloca ptr, align 8
  %arr = alloca [5 x i32], align 16
  %s = alloca %"class.eastl::span", align 8
  %arr5 = alloca [8 x float], align 16
  %s6 = alloca %"class.eastl::span.0", align 8
  %arr13 = alloca [5 x i64], align 16
  %s14 = alloca %"class.eastl::span.5", align 8
  store ptr %nErrorCount, ptr %nErrorCount.addr, align 8
  call void @llvm.memcpy.p0.p0.i64(ptr align 16 %arr, ptr align 16 @__const._Z17TestSpanSizeBytesRi.arr, i64 20, i1 false)
  call void @_ZN5eastl4spanIiLm18446744073709551615EEC2ILm5EvEERAT__i(ptr noundef nonnull align 8 dereferenceable(16) %s, ptr noundef nonnull align 4 dereferenceable(20) %arr) #7
  %call = call noundef i64 @_ZNK5eastl4spanIiLm18446744073709551615EE10size_bytesEv(ptr noundef nonnull align 8 dereferenceable(16) %s) #7
  %cmp = icmp eq i64 %call, 20
  %0 = load ptr, ptr %nErrorCount.addr, align 8
  %call1 = call noundef i32 @_ZN2EA8UnitTest12TestInternal17EATEST_VERIFY_IMPEbRiPKciS4_(i1 noundef zeroext %cmp, ptr noundef nonnull align 4 dereferenceable(4) %0, ptr noundef @.str, i32 noundef 104, ptr noundef @.str.14)
  %call2 = call noundef i64 @_ZNK5eastl4spanIiLm18446744073709551615EE10size_bytesEv(ptr noundef nonnull align 8 dereferenceable(16) %s) #7
  %cmp3 = icmp eq i64 %call2, 20
  %1 = load ptr, ptr %nErrorCount.addr, align 8
  %call4 = call noundef i32 @_ZN2EA8UnitTest12TestInternal17EATEST_VERIFY_IMPEbRiPKciS4_(i1 noundef zeroext %cmp3, ptr noundef nonnull align 4 dereferenceable(4) %1, ptr noundef @.str, i32 noundef 105, ptr noundef @.str.15)
  call void @llvm.memcpy.p0.p0.i64(ptr align 16 %arr5, ptr align 16 @__const._Z17TestSpanSizeBytesRi.arr.16, i64 32, i1 false)
  call void @_ZN5eastl4spanIfLm18446744073709551615EEC2ILm8EvEERAT__f(ptr noundef nonnull align 8 dereferenceable(16) %s6, ptr noundef nonnull align 4 dereferenceable(32) %arr5) #7
  %call7 = call noundef i64 @_ZNK5eastl4spanIfLm18446744073709551615EE10size_bytesEv(ptr noundef nonnull align 8 dereferenceable(16) %s6) #7
  %cmp8 = icmp eq i64 %call7, 32
  %2 = load ptr, ptr %nErrorCount.addr, align 8
  %call9 = call noundef i32 @_ZN2EA8UnitTest12TestInternal17EATEST_VERIFY_IMPEbRiPKciS4_(i1 noundef zeroext %cmp8, ptr noundef nonnull align 4 dereferenceable(4) %2, ptr noundef @.str, i32 noundef 111, ptr noundef @.str.14)
  %call10 = call noundef i64 @_ZNK5eastl4spanIfLm18446744073709551615EE10size_bytesEv(ptr noundef nonnull align 8 dereferenceable(16) %s6) #7
  %cmp11 = icmp eq i64 %call10, 32
  %3 = load ptr, ptr %nErrorCount.addr, align 8
  %call12 = call noundef i32 @_ZN2EA8UnitTest12TestInternal17EATEST_VERIFY_IMPEbRiPKciS4_(i1 noundef zeroext %cmp11, ptr noundef nonnull align 4 dereferenceable(4) %3, ptr noundef @.str, i32 noundef 112, ptr noundef @.str.17)
  call void @llvm.memset.p0.i64(ptr align 16 %arr13, i8 0, i64 40, i1 false)
  %4 = getelementptr inbounds [5 x i64], ptr %arr13, i32 0, i32 1
  store i64 1, ptr %4, align 8
  %5 = getelementptr inbounds [5 x i64], ptr %arr13, i32 0, i32 2
  store i64 2, ptr %5, align 16
  %6 = getelementptr inbounds [5 x i64], ptr %arr13, i32 0, i32 3
  store i64 3, ptr %6, align 8
  %7 = getelementptr inbounds [5 x i64], ptr %arr13, i32 0, i32 4
  store i64 4, ptr %7, align 16
  call void @_ZN5eastl4spanIlLm18446744073709551615EEC2ILm5EvEERAT__l(ptr noundef nonnull align 8 dereferenceable(16) %s14, ptr noundef nonnull align 8 dereferenceable(40) %arr13) #7
  %call15 = call noundef i64 @_ZNK5eastl4spanIlLm18446744073709551615EE10size_bytesEv(ptr noundef nonnull align 8 dereferenceable(16) %s14) #7
  %cmp16 = icmp eq i64 %call15, 40
  %8 = load ptr, ptr %nErrorCount.addr, align 8
  %call17 = call noundef i32 @_ZN2EA8UnitTest12TestInternal17EATEST_VERIFY_IMPEbRiPKciS4_(i1 noundef zeroext %cmp16, ptr noundef nonnull align 4 dereferenceable(4) %8, ptr noundef @.str, i32 noundef 118, ptr noundef @.str.14)
  %call18 = call noundef i64 @_ZNK5eastl4spanIlLm18446744073709551615EE10size_bytesEv(ptr noundef nonnull align 8 dereferenceable(16) %s14) #7
  %cmp19 = icmp eq i64 %call18, 40
  %9 = load ptr, ptr %nErrorCount.addr, align 8
  %call20 = call noundef i32 @_ZN2EA8UnitTest12TestInternal17EATEST_VERIFY_IMPEbRiPKciS4_(i1 noundef zeroext %cmp19, ptr noundef nonnull align 4 dereferenceable(4) %9, ptr noundef @.str, i32 noundef 119, ptr noundef @.str.18)
  ret void
}