; Function Attrs: mustprogress uwtable
define dso_local void @_Z17TestSpanSizeBytesRi(ptr noundef nonnull align 4 dereferenceable(4) %nErrorCount) local_unnamed_addr #0 personality ptr @__gxx_personality_v0 {
entry:
  %call1 = tail call noundef i32 @_ZN2EA8UnitTest12TestInternal17EATEST_VERIFY_IMPEbRiPKciS4_(i1 noundef zeroext true, ptr noundef nonnull align 4 dereferenceable(4) %nErrorCount, ptr noundef nonnull @.str, i32 noundef 104, ptr noundef nonnull @.str.14)
  %call4 = tail call noundef i32 @_ZN2EA8UnitTest12TestInternal17EATEST_VERIFY_IMPEbRiPKciS4_(i1 noundef zeroext true, ptr noundef nonnull align 4 dereferenceable(4) %nErrorCount, ptr noundef nonnull @.str, i32 noundef 105, ptr noundef nonnull @.str.15)
  %call9 = tail call noundef i32 @_ZN2EA8UnitTest12TestInternal17EATEST_VERIFY_IMPEbRiPKciS4_(i1 noundef zeroext true, ptr noundef nonnull align 4 dereferenceable(4) %nErrorCount, ptr noundef nonnull @.str, i32 noundef 111, ptr noundef nonnull @.str.14)
  %call12 = tail call noundef i32 @_ZN2EA8UnitTest12TestInternal17EATEST_VERIFY_IMPEbRiPKciS4_(i1 noundef zeroext true, ptr noundef nonnull align 4 dereferenceable(4) %nErrorCount, ptr noundef nonnull @.str, i32 noundef 112, ptr noundef nonnull @.str.17)
  %call17 = tail call noundef i32 @_ZN2EA8UnitTest12TestInternal17EATEST_VERIFY_IMPEbRiPKciS4_(i1 noundef zeroext true, ptr noundef nonnull align 4 dereferenceable(4) %nErrorCount, ptr noundef nonnull @.str, i32 noundef 118, ptr noundef nonnull @.str.14)
  %call20 = tail call noundef i32 @_ZN2EA8UnitTest12TestInternal17EATEST_VERIFY_IMPEbRiPKciS4_(i1 noundef zeroext true, ptr noundef nonnull align 4 dereferenceable(4) %nErrorCount, ptr noundef nonnull @.str, i32 noundef 119, ptr noundef nonnull @.str.18)
  ret void
}